; Function Attrs: mustprogress uwtable
define hidden void @_Z17ast_ll_bounded_ppRSoR11ast_managerP3astj(ptr noundef nonnull align 8 dereferenceable(8) %0, ptr noundef nonnull align 8 dereferenceable(976) %1, ptr noundef %2, i32 noundef %3) local_unnamed_addr #3 {
  %5 = alloca %class.ll_printer, align 8
  call void @llvm.lifetime.start.p0(i64 72, ptr nonnull %5) #19
  store ptr %0, ptr %5, align 8, !tbaa !3
  %6 = getelementptr inbounds nuw i8, ptr %5, i64 8
  store ptr %1, ptr %6, align 8, !tbaa !8
  %7 = getelementptr inbounds nuw i8, ptr %5, i64 16
  store ptr null, ptr %7, align 8, !tbaa !10
  %8 = getelementptr inbounds nuw i8, ptr %5, i64 24
  store i8 0, ptr %8, align 8, !tbaa !19
  %9 = getelementptr inbounds nuw i8, ptr %5, i64 25
  store i8 1, ptr %9, align 1, !tbaa !20
  %10 = getelementptr inbounds nuw i8, ptr %5, i64 32
  call void @_ZN10arith_utilC1ER11ast_manager(ptr noundef nonnull align 8 dereferenceable(16) %10, ptr noundef nonnull align 8 dereferenceable(976) %1)
  %11 = getelementptr inbounds nuw i8, ptr %5, i64 48
  call void @_ZN8datatype4utilC1ER11ast_manager(ptr noundef nonnull align 8 dereferenceable(24) %11, ptr noundef nonnull align 8 dereferenceable(976) %1)
  %.not.i = icmp eq ptr %2, null
  br i1 %.not.i, label %12, label %15

12:                                               ; preds = %4
  %13 = load ptr, ptr %5, align 8, !tbaa !26
  %14 = call noundef nonnull align 8 dereferenceable(8) ptr @_ZSt16__ostream_insertIcSt11char_traitsIcEERSt13basic_ostreamIT_T0_ES6_PKS3_l(ptr noundef nonnull align 8 dereferenceable(8) %13, ptr noundef nonnull @.str, i64 noundef 4)
  br label %_ZN10ll_printer15display_boundedEP3astj.exit

15:                                               ; preds = %4
  %16 = getelementptr inbounds nuw i8, ptr %2, i64 4
  %17 = load i32, ptr %16, align 4
  %18 = and i32 %17, 65535
  %19 = add nsw i32 %18, -5
  %20 = icmp ult i32 %19, -2
  br i1 %20, label %21, label %22

21:                                               ; preds = %15
  call void @_ZN10ll_printer7displayEP4exprj(ptr noundef nonnull align 8 dereferenceable(72) %5, ptr noundef nonnull %2, i32 noundef %3)
  br label %_ZN10ll_printer15display_boundedEP3astj.exit

22:                                               ; preds = %15
  %23 = load ptr, ptr %5, align 8, !tbaa !26
  %24 = call noundef nonnull align 8 dereferenceable(8) ptr @_ZSt16__ostream_insertIcSt11char_traitsIcEERSt13basic_ostreamIT_T0_ES6_PKS3_l(ptr noundef nonnull align 8 dereferenceable(8) %23, ptr noundef nonnull @.str.10, i64 noundef 1)
  %25 = load i32, ptr %2, align 4, !tbaa !27
  %26 = zext i32 %25 to i64
  %27 = call noundef nonnull align 8 dereferenceable(8) ptr @_ZNSo9_M_insertImEERSoT_(ptr noundef nonnull align 8 dereferenceable(8) %23, i64 noundef %26)
  br label %_ZN10ll_printer15display_boundedEP3astj.exit

_ZN10ll_printer15display_boundedEP3astj.exit:     ; preds = %12, %21, %22
  call void @llvm.lifetime.end.p0(i64 72, ptr nonnull %5) #19
  ret void
}